target datalayout = "e-m:e-p270:32:32-p271:32:32-p272:64:64-i64:64-i128:128-f80:128-n8:16:32:64-S128"
target triple = "x86_64-pc-linux-gnu"

%struct.stat = type { i64, i64, i64, i32, i32, i32, i32, i64, i64, i64, i64, %struct.timespec, %struct.timespec, %struct.timespec, [3 x i64] }
%struct.timespec = type { i64, i64 }

; Function Attrs: nounwind uwtable
define dso_local i32 @is_executable(ptr noundef %0) #0 {
  %2 = alloca i32, align 4
  %3 = alloca ptr, align 8
  %4 = alloca %struct.stat, align 8
  %5 = alloca i32, align 4
  store ptr %0, ptr %3, align 8, !tbaa !9
  call void @llvm.lifetime.start.p0(i64 144, ptr %4) #13
  %6 = load ptr, ptr %3, align 8, !tbaa !9
  %7 = call i32 @stat64(ptr noundef %6, ptr noundef %4) #13
  %8 = icmp ne i32 %7, 0
  br i1 %8, label %14, label %9

9:                                                ; preds = %1
  %10 = getelementptr inbounds nuw %struct.stat, ptr %4, i32 0, i32 3
  %11 = load i32, ptr %10, align 8, !tbaa !11
  %12 = and i32 %11, 61440
  %13 = icmp eq i32 %12, 32768
  br i1 %13, label %15, label %14

14:                                               ; preds = %9, %1
  store i32 0, ptr %2, align 4
  store i32 1, ptr %5, align 4
  br label %19

15:                                               ; preds = %9
  %16 = getelementptr inbounds nuw %struct.stat, ptr %4, i32 0, i32 3
  %17 = load i32, ptr %16, align 8, !tbaa !11
  %18 = and i32 %17, 64
  store i32 %18, ptr %2, align 4
  store i32 1, ptr %5, align 4
  br label %19

19:                                               ; preds = %15, %14
  call void @llvm.lifetime.end.p0(i64 144, ptr %4) #13
  %20 = load i32, ptr %2, align 4
  ret i32 %20
}