; Function Attrs: nofree nounwind uwtable
define dso_local range(i32 0, 65) i32 @is_executable(ptr noundef readonly captures(none) %0) local_unnamed_addr #5 {
  %2 = alloca %struct.stat, align 8
  call void @llvm.lifetime.start.p0(i64 144, ptr nonnull %2) #21
  %3 = call i32 @stat64(ptr noundef %0, ptr noundef nonnull %2) #21
  %.not = icmp eq i32 %3, 0
  br i1 %.not, label %4, label %10

4:                                                ; preds = %1
  %5 = getelementptr inbounds nuw i8, ptr %2, i64 24
  %6 = load i32, ptr %5, align 8, !tbaa !4
  %7 = and i32 %6, 61440
  %8 = icmp eq i32 %7, 32768
  %9 = and i32 %6, 64
  %spec.select = select i1 %8, i32 %9, i32 0
  br label %10

10:                                               ; preds = %4, %1
  %.0 = phi i32 [ 0, %1 ], [ %spec.select, %4 ]
  call void @llvm.lifetime.end.p0(i64 144, ptr nonnull %2) #21
  ret i32 %.0
}